; Function Attrs: mustprogress nofree norecurse nosync nounwind willreturn memory(argmem: readwrite) uwtable
define void @_ZN6google8protobuf6Option12InternalSwapEPS1_(ptr nocapture noundef nonnull align 8 dereferenceable(40) %this, ptr noalias nocapture noundef %other) local_unnamed_addr #11 align 2 {
entry:
  %_internal_metadata_.i = getelementptr inbounds i8, ptr %this, i64 8
  %0 = load i64, ptr %_internal_metadata_.i, align 8
  %_internal_metadata_3 = getelementptr inbounds i8, ptr %other, i64 8
  %1 = load i64, ptr %_internal_metadata_3, align 8
  store i64 %1, ptr %_internal_metadata_.i, align 8
  store i64 %0, ptr %_internal_metadata_3, align 8
  %2 = getelementptr inbounds i8, ptr %this, i64 16
  %3 = getelementptr inbounds i8, ptr %other, i64 16
  %4 = load i32, ptr %2, align 8
  %5 = load i32, ptr %3, align 4
  store i32 %5, ptr %2, align 8
  store i32 %4, ptr %3, align 4
  %name_ = getelementptr inbounds i8, ptr %this, i64 24
  %name_7 = getelementptr inbounds i8, ptr %other, i64 24
  %6 = load i64, ptr %name_, align 8
  %value_ = getelementptr inbounds i8, ptr %this, i64 32
  %value_8 = getelementptr inbounds i8, ptr %other, i64 32
  %7 = load ptr, ptr %value_, align 8
  %8 = load <2 x ptr>, ptr %name_7, align 8
  store i64 %6, ptr %name_7, align 8
  store <2 x ptr> %8, ptr %name_, align 8
  store ptr %7, ptr %value_8, align 8
  ret void
}